; Function Attrs: mustprogress noinline uwtable
define hidden noundef ptr @_ZN6google8protobuf5Arena18CreateMaybeMessageINS0_24EnumValueDescriptorProtoEJEEEPT_PS1_DpOT0_(ptr noundef %0) local_unnamed_addr #18 align 2 personality ptr @__gxx_personality_v0 {
  %2 = icmp eq ptr %0, null
  br i1 %2, label %_ZN6google8protobuf5Arena14InternalHelperINS0_24EnumValueDescriptorProtoEE3NewEv.exit, label %5

_ZN6google8protobuf5Arena14InternalHelperINS0_24EnumValueDescriptorProtoEE3NewEv.exit: ; preds = %1
  %3 = tail call noalias noundef nonnull dereferenceable(48) ptr @_Znwm(i64 noundef 48) #26
  %4 = getelementptr inbounds nuw i8, ptr %3, i64 8
  store i64 0, ptr %4, align 8, !tbaa !8
  br label %_ZN6google8protobuf5Arena21CreateMessageInternalINS0_24EnumValueDescriptorProtoEEEPT_PS1_.exit

5:                                                ; preds = %1
  %6 = tail call noundef ptr @_ZN6google8protobuf5Arena23AllocateAlignedWithHookEmPKSt9type_info(ptr noundef nonnull align 8 dereferenceable(32) %0, i64 noundef 48, ptr noundef nonnull @_ZTIN6google8protobuf24EnumValueDescriptorProtoE)
  %7 = getelementptr inbounds nuw i8, ptr %6, i64 8
  %8 = ptrtoint ptr %0 to i64
  store i64 %8, ptr %7, align 8, !tbaa !8
  br label %_ZN6google8protobuf5Arena21CreateMessageInternalINS0_24EnumValueDescriptorProtoEEEPT_PS1_.exit

_ZN6google8protobuf5Arena21CreateMessageInternalINS0_24EnumValueDescriptorProtoEEEPT_PS1_.exit: ; preds = %_ZN6google8protobuf5Arena14InternalHelperINS0_24EnumValueDescriptorProtoEE3NewEv.exit, %5
  %.sink5 = phi ptr [ %3, %_ZN6google8protobuf5Arena14InternalHelperINS0_24EnumValueDescriptorProtoEE3NewEv.exit ], [ %6, %5 ]
  store ptr getelementptr inbounds nuw inrange(-16, 152) (i8, ptr @_ZTVN6google8protobuf24EnumValueDescriptorProtoE, i64 16), ptr %.sink5, align 8, !tbaa !11
  %.ptr.i = getelementptr inbounds nuw i8, ptr %.sink5, i64 16
  store i32 0, ptr %.ptr.i, align 4, !tbaa !58
  %9 = getelementptr inbounds nuw i8, ptr %.sink5, i64 20
  store i32 0, ptr %9, align 4, !tbaa !25
  %10 = getelementptr inbounds nuw i8, ptr %.sink5, i64 24
  store ptr @_ZN6google8protobuf8internal26fixed_address_empty_stringB5cxx11E, ptr %10, align 8, !tbaa !84
  %11 = getelementptr inbounds nuw i8, ptr %.sink5, i64 32
  tail call void @llvm.memset.p0.i64(ptr noundef nonnull align 8 dereferenceable(12) %11, i8 0, i64 12, i1 false)
  ret ptr %.sink5
}